; Function Attrs: nounwind uwtable
define hidden void @SDL_DestroyAudioQueue(ptr noundef initializes((8, 16), (24, 32)) %0) local_unnamed_addr #0 {
  %2 = load ptr, ptr %0, align 8
  %3 = getelementptr inbounds nuw i8, ptr %0, i64 24
  store i64 0, ptr %3, align 8
  %.not9.i = icmp eq ptr %2, null
  tail call void @llvm.memset.p0.i64(ptr noundef nonnull align 8 dereferenceable(16) %0, i8 0, i64 16, i1 false)
  br i1 %.not9.i, label %SDL_ClearAudioQueue.exit, label %.lr.ph.i

.lr.ph.i:                                         ; preds = %1
  %4 = getelementptr inbounds nuw i8, ptr %0, i64 56
  %5 = getelementptr inbounds nuw i8, ptr %0, i64 64
  %6 = getelementptr inbounds nuw i8, ptr %0, i64 40
  br label %7

7:                                                ; preds = %DestroyAudioTrack.exit.i, %.lr.ph.i
  %.010.i = phi ptr [ %2, %.lr.ph.i ], [ %9, %DestroyAudioTrack.exit.i ]
  %8 = getelementptr inbounds nuw i8, ptr %.010.i, i64 32
  %9 = load ptr, ptr %8, align 8
  %10 = getelementptr inbounds nuw i8, ptr %.010.i, i64 48
  %11 = load ptr, ptr %10, align 8
  %12 = getelementptr inbounds nuw i8, ptr %.010.i, i64 40
  %13 = load ptr, ptr %12, align 8
  %14 = getelementptr inbounds nuw i8, ptr %.010.i, i64 56
  %15 = load ptr, ptr %14, align 8
  %16 = getelementptr inbounds nuw i8, ptr %.010.i, i64 80
  %17 = load i64, ptr %16, align 8
  %18 = trunc i64 %17 to i32
  tail call void %11(ptr noundef %13, ptr noundef %15, i32 noundef %18) #10
  %19 = load i64, ptr %4, align 8
  %20 = load i64, ptr %5, align 8
  %21 = icmp ult i64 %19, %20
  br i1 %21, label %22, label %26

22:                                               ; preds = %7
  %23 = load ptr, ptr %6, align 8
  store ptr %23, ptr %.010.i, align 8
  store ptr %.010.i, ptr %6, align 8
  %24 = load i64, ptr %4, align 8
  %25 = add i64 %24, 1
  store i64 %25, ptr %4, align 8
  br label %DestroyAudioTrack.exit.i

26:                                               ; preds = %7
  tail call void @SDL_free_REAL(ptr noundef nonnull %.010.i) #10
  br label %DestroyAudioTrack.exit.i

DestroyAudioTrack.exit.i:                         ; preds = %26, %22
  %.not.i = icmp eq ptr %9, null
  br i1 %.not.i, label %SDL_ClearAudioQueue.exit, label %7, !llvm.loop !3

SDL_ClearAudioQueue.exit:                         ; preds = %DestroyAudioTrack.exit.i, %1
  %27 = getelementptr inbounds nuw i8, ptr %0, i64 40
  %28 = load ptr, ptr %27, align 8
  store ptr null, ptr %27, align 8
  %29 = getelementptr inbounds nuw i8, ptr %0, i64 56
  store i64 0, ptr %29, align 8
  %.not7.i = icmp eq ptr %28, null
  br i1 %.not7.i, label %DestroyMemoryPool.exit, label %.lr.ph.i5

.lr.ph.i5:                                        ; preds = %SDL_ClearAudioQueue.exit, %.lr.ph.i5
  %.08.i = phi ptr [ %30, %.lr.ph.i5 ], [ %28, %SDL_ClearAudioQueue.exit ]
  %30 = load ptr, ptr %.08.i, align 8
  tail call void @SDL_free_REAL(ptr noundef nonnull %.08.i) #10
  %.not.i6 = icmp eq ptr %30, null
  br i1 %.not.i6, label %DestroyMemoryPool.exit, label %.lr.ph.i5, !llvm.loop !5

DestroyMemoryPool.exit:                           ; preds = %.lr.ph.i5, %SDL_ClearAudioQueue.exit
  %31 = getelementptr inbounds nuw i8, ptr %0, i64 72
  %32 = load ptr, ptr %31, align 8
  store ptr null, ptr %31, align 8
  %33 = getelementptr inbounds nuw i8, ptr %0, i64 88
  store i64 0, ptr %33, align 8
  %.not7.i7 = icmp eq ptr %32, null
  br i1 %.not7.i7, label %DestroyMemoryPool.exit11, label %.lr.ph.i8

.lr.ph.i8:                                        ; preds = %DestroyMemoryPool.exit, %.lr.ph.i8
  %.08.i9 = phi ptr [ %34, %.lr.ph.i8 ], [ %32, %DestroyMemoryPool.exit ]
  %34 = load ptr, ptr %.08.i9, align 8
  tail call void @SDL_free_REAL(ptr noundef nonnull %.08.i9) #10
  %.not.i10 = icmp eq ptr %34, null
  br i1 %.not.i10, label %DestroyMemoryPool.exit11, label %.lr.ph.i8, !llvm.loop !5

DestroyMemoryPool.exit11:                         ; preds = %.lr.ph.i8, %DestroyMemoryPool.exit
  %35 = getelementptr inbounds nuw i8, ptr %0, i64 16
  %36 = load ptr, ptr %35, align 8
  tail call void @SDL_aligned_free_REAL(ptr noundef %36) #10
  tail call void @SDL_free_REAL(ptr noundef nonnull %0) #10
  ret void
}